target datalayout = "e-m:e-p270:32:32-p271:32:32-p272:64:64-i64:64-i128:128-f80:128-n8:16:32:64-S128"
target triple = "x86_64-pc-linux-gnu"

%struct._zend_array = type { %struct._zend_refcounted_h, %union.anon.0, i32, %union.anon.1, i32, i32, i32, i32, i64, ptr }
%struct._zend_refcounted_h = type { i32, %union.anon }
%union.anon = type { i32 }
%union.anon.0 = type { i32 }
%union.anon.1 = type { ptr }
%struct._zval_struct = type { %union._zend_value, %union.anon.3, %union.anon.6 }
%union._zend_value = type { i64 }
%union.anon.3 = type { i32 }
%union.anon.6 = type { i32 }
%struct._zend_executor_globals = type { %struct._zval_struct, %struct._zval_struct, [32 x ptr], ptr, ptr, %struct._zend_array, %struct._zend_array, ptr, i32, i8, %struct._zval_struct, i32, ptr, ptr, ptr, ptr, ptr, ptr, i64, ptr, ptr, i32, ptr, i32, i64, i32, i32, i32, i8, i8, %struct.zend_atomic_bool_s, %struct.zend_atomic_bool_s, ptr, i64, ptr, ptr, %struct._zend_array, %struct._zend_array, i32, i8, %struct._zval_struct, %struct._zval_struct, %struct._zend_stack, %struct._zend_stack, %struct._zend_stack, ptr, i32, i32, i64, ptr, ptr, ptr, %struct._zend_objects_store, %struct._zend_lazy_objects_store, ptr, ptr, ptr, [3 x %struct._zend_op], ptr, i8, i8, i64, i32, i32, ptr, [16 x %struct._HashTableIterator], ptr, %union._zend_function, %struct._zend_op, %struct._zend_array, i64, %struct.zend_get_gc_buffer, ptr, ptr, ptr, i64, i8, i32, ptr, ptr, i64, %struct._zend_call_stack, i64, i64, %struct._zend_strtod_state, [6 x ptr] }
%struct.zend_atomic_bool_s = type { i8 }
%struct._zend_stack = type { i32, i32, i32, ptr }
%struct._zend_objects_store = type { ptr, i32, i32, i32 }
%struct._zend_lazy_objects_store = type { %struct._zend_array }
%struct._HashTableIterator = type { ptr, i32, i32 }
%union._zend_function = type { %struct._zend_op_array }
%struct._zend_op_array = type { i8, [3 x i8], i32, ptr, ptr, ptr, i32, i32, ptr, ptr, ptr, ptr, i32, ptr, i32, i32, i32, ptr, ptr, ptr, ptr, ptr, i32, i32, ptr, ptr, ptr, i32, i32, i32, i32, ptr, ptr, [6 x ptr] }
%struct._zend_op = type { ptr, %union._znode_op, %union._znode_op, %union._znode_op, i32, i32, i8, i8, i8, i8 }
%union._znode_op = type { i32 }
%struct.zend_get_gc_buffer = type { ptr, ptr, ptr }
%struct._zend_call_stack = type { ptr, i64 }
%struct._zend_strtod_state = type { [8 x ptr], ptr, ptr }
%struct._zend_string = type { %struct._zend_refcounted_h, i64, i64, [1 x i8] }

@executor_globals = external global %struct._zend_executor_globals, align 8

; Function Attrs: inlinehint nounwind willreturn memory(read) uwtable
define available_externally i64 @atoll(ptr noundef nonnull %0) #17 {
  %2 = alloca ptr, align 8
  store ptr %0, ptr %2, align 8, !tbaa !14
  %3 = load ptr, ptr %2, align 8, !tbaa !14
  %4 = call i64 @strtoll(ptr noundef %3, ptr noundef null, i32 noundef 10) #18
  ret i64 %4
}

; Function Attrs: nounwind uwtable
define internal i32 @OnUpdateTimeout(ptr noundef %0, ptr noundef %1, ptr noundef %2, ptr noundef %3, ptr noundef %4, i32 noundef %5) #1 {
  %7 = alloca i32, align 4
  %8 = alloca ptr, align 8
  %9 = alloca ptr, align 8
  %10 = alloca ptr, align 8
  %11 = alloca ptr, align 8
  %12 = alloca ptr, align 8
  %13 = alloca i32, align 4
  store ptr %0, ptr %8, align 8, !tbaa !243
  store ptr %1, ptr %9, align 8, !tbaa !54
  store ptr %2, ptr %10, align 8, !tbaa !56
  store ptr %3, ptr %11, align 8, !tbaa !56
  store ptr %4, ptr %12, align 8, !tbaa !56
  store i32 %5, ptr %13, align 4, !tbaa !50
  %14 = load i32, ptr %13, align 4, !tbaa !50
  %15 = icmp eq i32 %14, 1
  br i1 %15, label %16, label %21

16:                                               ; preds = %6
  %17 = load ptr, ptr %9, align 8, !tbaa !54
  %18 = getelementptr inbounds nuw %struct._zend_string, ptr %17, i32 0, i32 3
  %19 = getelementptr inbounds [1 x i8], ptr %18, i64 0, i64 0
  %20 = call i64 @atoll(ptr noundef %19) #19
  store i64 %20, ptr getelementptr inbounds nuw (%struct._zend_executor_globals, ptr @executor_globals, i32 0, i32 48), align 8, !tbaa !131
  store i32 0, ptr %7, align 4
  br label %31

21:                                               ; preds = %6
  call void @zend_unset_timeout()
  %22 = load ptr, ptr %9, align 8, !tbaa !54
  %23 = getelementptr inbounds nuw %struct._zend_string, ptr %22, i32 0, i32 3
  %24 = getelementptr inbounds [1 x i8], ptr %23, i64 0, i64 0
  %25 = call i64 @atoll(ptr noundef %24) #19
  store i64 %25, ptr getelementptr inbounds nuw (%struct._zend_executor_globals, ptr @executor_globals, i32 0, i32 48), align 8, !tbaa !131
  %26 = load i32, ptr %13, align 4, !tbaa !50
  %27 = icmp ne i32 %26, 8
  br i1 %27, label %28, label %30

28:                                               ; preds = %21
  %29 = load i64, ptr getelementptr inbounds nuw (%struct._zend_executor_globals, ptr @executor_globals, i32 0, i32 48), align 8, !tbaa !131
  call void @zend_set_timeout(i64 noundef %29, i1 noundef zeroext false)
  br label %30

30:                                               ; preds = %28, %21
  store i32 0, ptr %7, align 4
  br label %31

31:                                               ; preds = %30, %16
  %32 = load i32, ptr %7, align 4
  ret i32 %32
}