; Function Attrs: nounwind uwtable
define internal noundef i32 @OnUpdateTimeout(ptr readnone captures(none) %0, ptr noundef readonly captures(none) %1, ptr readnone captures(none) %2, ptr readnone captures(none) %3, ptr readnone captures(none) %4, i32 noundef %5) #2 {
  %7 = icmp eq i32 %5, 1
  br i1 %7, label %8, label %11

8:                                                ; preds = %6
  %9 = getelementptr inbounds nuw i8, ptr %1, i64 24
  %10 = tail call i64 @strtoll(ptr noundef nonnull captures(none) %9, ptr noundef null, i32 noundef 10) #28
  store i64 %10, ptr getelementptr inbounds nuw (i8, ptr @executor_globals, i64 848), align 8, !tbaa !217
  br label %15

11:                                               ; preds = %6
  tail call void @zend_unset_timeout() #28
  %12 = getelementptr inbounds nuw i8, ptr %1, i64 24
  %13 = tail call i64 @strtoll(ptr noundef nonnull captures(none) %12, ptr noundef null, i32 noundef 10) #28
  store i64 %13, ptr getelementptr inbounds nuw (i8, ptr @executor_globals, i64 848), align 8, !tbaa !217
  %.not = icmp eq i32 %5, 8
  br i1 %.not, label %15, label %14

14:                                               ; preds = %11
  tail call void @zend_set_timeout(i64 noundef %13, i1 noundef zeroext false) #28
  br label %15

15:                                               ; preds = %11, %14, %8
  ret i32 0
}